target datalayout = "e-m:e-p270:32:32-p271:32:32-p272:64:64-i64:64-i128:128-f80:128-n8:16:32:64-S128"
target triple = "x86_64-pc-linux-gnu"

%struct.SANMVideoContext = type { ptr, %struct.GetByteContext, i32, i32, i32, i32, [256 x i32], [768 x i16], i64, i32, i32, i32, i32, i32, ptr, ptr, ptr, ptr, ptr, ptr, i32, i32, i32, i32, i32, ptr, i32, i32, i64, i64, [256 x i16], [4 x i16], [256 x [16 x i8]], [256 x [64 x i8]], [65536 x i8], [256 x i8], [2 x [256 x [16 x i8]]], i16 }
%struct.GetByteContext = type { ptr, ptr, ptr }

; Function Attrs: nounwind uwtable
define internal i32 @decode_2(ptr noundef %0) #1 {
  %2 = alloca i32, align 4
  %3 = alloca ptr, align 8
  %4 = alloca i32, align 4
  %5 = alloca i32, align 4
  %6 = alloca i32, align 4
  %7 = alloca i32, align 4
  store ptr %0, ptr %3, align 8, !tbaa !29
  call void @llvm.lifetime.start.p0(i64 4, ptr %4) #10
  call void @llvm.lifetime.start.p0(i64 4, ptr %5) #10
  call void @llvm.lifetime.start.p0(i64 4, ptr %6) #10
  store i32 0, ptr %5, align 4, !tbaa !44
  br label %8

8:                                                ; preds = %34, %1
  %9 = load i32, ptr %5, align 4, !tbaa !44
  %10 = load ptr, ptr %3, align 8, !tbaa !29
  %11 = getelementptr inbounds nuw %struct.SANMVideoContext, ptr %10, i32 0, i32 12
  %12 = load i32, ptr %11, align 4, !tbaa !83
  %13 = icmp slt i32 %9, %12
  br i1 %13, label %14, label %37

14:                                               ; preds = %8
  store i32 0, ptr %4, align 4, !tbaa !44
  br label %15

15:                                               ; preds = %30, %14
  %16 = load i32, ptr %4, align 4, !tbaa !44
  %17 = load ptr, ptr %3, align 8, !tbaa !29
  %18 = getelementptr inbounds nuw %struct.SANMVideoContext, ptr %17, i32 0, i32 11
  %19 = load i32, ptr %18, align 8, !tbaa !82
  %20 = icmp slt i32 %16, %19
  br i1 %20, label %21, label %33

21:                                               ; preds = %15
  %22 = load ptr, ptr %3, align 8, !tbaa !29
  %23 = load i32, ptr %4, align 4, !tbaa !44
  %24 = load i32, ptr %5, align 4, !tbaa !44
  %25 = call i32 @codec2subblock(ptr noundef %22, i32 noundef %23, i32 noundef %24, i32 noundef 8)
  store i32 %25, ptr %6, align 4, !tbaa !44
  %26 = icmp ne i32 %25, 0
  br i1 %26, label %27, label %29

27:                                               ; preds = %21
  %28 = load i32, ptr %6, align 4, !tbaa !44
  store i32 %28, ptr %2, align 4
  store i32 1, ptr %7, align 4
  br label %38

29:                                               ; preds = %21
  br label %30

30:                                               ; preds = %29
  %31 = load i32, ptr %4, align 4, !tbaa !44
  %32 = add nsw i32 %31, 8
  store i32 %32, ptr %4, align 4, !tbaa !44
  br label %15, !llvm.loop !211

33:                                               ; preds = %15
  br label %34

34:                                               ; preds = %33
  %35 = load i32, ptr %5, align 4, !tbaa !44
  %36 = add nsw i32 %35, 8
  store i32 %36, ptr %5, align 4, !tbaa !44
  br label %8, !llvm.loop !212

37:                                               ; preds = %8
  store i32 0, ptr %2, align 4
  store i32 1, ptr %7, align 4
  br label %38

38:                                               ; preds = %37, %27
  call void @llvm.lifetime.end.p0(i64 4, ptr %6) #10
  call void @llvm.lifetime.end.p0(i64 4, ptr %5) #10
  call void @llvm.lifetime.end.p0(i64 4, ptr %4) #10
  %39 = load i32, ptr %2, align 4
  ret i32 %39
}