; Function Attrs: nounwind uwtable
define internal range(i32 -1094995529, 1) i32 @decode_2(ptr noundef %0) #1 {
  %2 = getelementptr inbounds nuw i8, ptr %0, i64 2628
  %3 = load i32, ptr %2, align 4, !tbaa !42
  %4 = icmp sgt i32 %3, 0
  br i1 %4, label %.preheader.lr.ph, label %.loopexit

.preheader.lr.ph:                                 ; preds = %1
  %5 = getelementptr inbounds nuw i8, ptr %0, i64 2624
  %6 = load i32, ptr %5, align 8, !tbaa !41
  %7 = icmp sgt i32 %6, 0
  br i1 %7, label %.preheader, label %.loopexit

.preheader:                                       ; preds = %.preheader.lr.ph, %._crit_edge
  %8 = phi i32 [ %16, %._crit_edge ], [ %3, %.preheader.lr.ph ]
  %9 = phi i32 [ %17, %._crit_edge ], [ %6, %.preheader.lr.ph ]
  %.01015 = phi i32 [ %18, %._crit_edge ], [ 0, %.preheader.lr.ph ]
  %10 = icmp sgt i32 %9, 0
  br i1 %10, label %.lr.ph, label %._crit_edge

11:                                               ; preds = %.lr.ph
  %12 = add nuw nsw i32 %.01114, 8
  %13 = load i32, ptr %5, align 8, !tbaa !41
  %14 = icmp slt i32 %12, %13
  br i1 %14, label %.lr.ph, label %._crit_edge.loopexit, !llvm.loop !184

.lr.ph:                                           ; preds = %.preheader, %11
  %.01114 = phi i32 [ %12, %11 ], [ 0, %.preheader ]
  %15 = tail call fastcc i32 @codec2subblock(ptr noundef nonnull %0, i32 noundef %.01114, i32 noundef %.01015, i32 noundef 8)
  %.not = icmp eq i32 %15, 0
  br i1 %.not, label %11, label %.loopexit

._crit_edge.loopexit:                             ; preds = %11
  %.pre = load i32, ptr %2, align 4, !tbaa !42
  br label %._crit_edge

._crit_edge:                                      ; preds = %._crit_edge.loopexit, %.preheader
  %16 = phi i32 [ %.pre, %._crit_edge.loopexit ], [ %8, %.preheader ]
  %17 = phi i32 [ %13, %._crit_edge.loopexit ], [ %9, %.preheader ]
  %18 = add nuw nsw i32 %.01015, 8
  %19 = icmp slt i32 %18, %16
  br i1 %19, label %.preheader, label %.loopexit, !llvm.loop !185

.loopexit:                                        ; preds = %._crit_edge, %.lr.ph, %.preheader.lr.ph, %1
  %.0 = phi i32 [ 0, %1 ], [ 0, %.preheader.lr.ph ], [ %15, %.lr.ph ], [ 0, %._crit_edge ]
  ret i32 %.0
}